; ModuleID = '32/1598.c'
source_filename = "32/1598.c"
target datalayout = "e-m:e-p270:32:32-p271:32:32-p272:64:64-i64:64-f80:128-n8:16:32:64-S128"
target triple = "x86_64-pc-linux-gnu"

%struct.jianfa = type { [100 x i8], [100 x i8] }

@.str = private unnamed_addr constant [3 x i8] c"%d\00", align 1
@.str.1 = private unnamed_addr constant [6 x i8] c"%s %s\00", align 1
@a = common dso_local global [20 x %struct.jianfa] zeroinitializer, align 16

; Function Attrs: noinline nounwind uwtable
define dso_local void @main() #0 {
  %1 = alloca i32, align 4
  %2 = alloca [20 x i32], align 16
  %3 = alloca [20 x i32], align 16
  %4 = alloca i32, align 4
  %5 = alloca i32, align 4
  %6 = call i32 (i8*, ...) @__isoc99_scanf(i8* getelementptr inbounds ([3 x i8], [3 x i8]* @.str, i64 0, i64 0), i32* %5)
  store i32 0, i32* %1, align 4
  br label %7

7:                                                ; preds = %44, %0
  %8 = load i32, i32* %1, align 4
  %9 = load i32, i32* %5, align 4
  %10 = icmp slt i32 %8, %9
  br i1 %10, label %11, label %47

11:                                               ; preds = %7
  %12 = load i32, i32* %1, align 4
  %13 = sext i32 %12 to i64
  %14 = getelementptr inbounds [20 x %struct.jianfa], [20 x %struct.jianfa]* @a, i64 0, i64 %13
  %15 = getelementptr inbounds %struct.jianfa, %struct.jianfa* %14, i32 0, i32 0
  %16 = getelementptr inbounds [100 x i8], [100 x i8]* %15, i64 0, i64 0
  %17 = load i32, i32* %1, align 4
  %18 = sext i32 %17 to i64
  %19 = getelementptr inbounds [20 x %struct.jianfa], [20 x %struct.jianfa]* @a, i64 0, i64 %18
  %20 = getelementptr inbounds %struct.jianfa, %struct.jianfa* %19, i32 0, i32 1
  %21 = getelementptr inbounds [100 x i8], [100 x i8]* %20, i64 0, i64 0
  %22 = call i32 (i8*, ...) @__isoc99_scanf(i8* getelementptr inbounds ([6 x i8], [6 x i8]* @.str.1, i64 0, i64 0), i8* %16, i8* %21)
  %23 = call i32 @getchar()
  %24 = load i32, i32* %1, align 4
  %25 = sext i32 %24 to i64
  %26 = getelementptr inbounds [20 x %struct.jianfa], [20 x %struct.jianfa]* @a, i64 0, i64 %25
  %27 = getelementptr inbounds %struct.jianfa, %struct.jianfa* %26, i32 0, i32 0
  %28 = getelementptr inbounds [100 x i8], [100 x i8]* %27, i64 0, i64 0
  %29 = call i64 @strlen(i8* %28) #3
  %30 = trunc i64 %29 to i32
  %31 = load i32, i32* %1, align 4
  %32 = sext i32 %31 to i64
  %33 = getelementptr inbounds [20 x i32], [20 x i32]* %2, i64 0, i64 %32
  store i32 %30, i32* %33, align 4
  %34 = load i32, i32* %1, align 4
  %35 = sext i32 %34 to i64
  %36 = getelementptr inbounds [20 x %struct.jianfa], [20 x %struct.jianfa]* @a, i64 0, i64 %35
  %37 = getelementptr inbounds %struct.jianfa, %struct.jianfa* %36, i32 0, i32 1
  %38 = getelementptr inbounds [100 x i8], [100 x i8]* %37, i64 0, i64 0
  %39 = call i64 @strlen(i8* %38) #3
  %40 = trunc i64 %39 to i32
  %41 = load i32, i32* %1, align 4
  %42 = sext i32 %41 to i64
  %43 = getelementptr inbounds [20 x i32], [20 x i32]* %3, i64 0, i64 %42
  store i32 %40, i32* %43, align 4
  br label %44

44:                                               ; preds = %11
  %45 = load i32, i32* %1, align 4
  %46 = add nsw i32 %45, 1
  store i32 %46, i32* %1, align 4
  br label %7

47:                                               ; preds = %7
  store i32 0, i32* %4, align 4
  br label %48

48:                                               ; preds = %195, %47
  %49 = load i32, i32* %4, align 4
  %50 = load i32, i32* %5, align 4
  %51 = icmp slt i32 %49, %50
  br i1 %51, label %52, label %198

52:                                               ; preds = %48
  store i32 0, i32* %1, align 4
  br label %53

53:                                               ; preds = %185, %52
  %54 = load i32, i32* %1, align 4
  %55 = load i32, i32* %4, align 4
  %56 = sext i32 %55 to i64
  %57 = getelementptr inbounds [20 x i32], [20 x i32]* %3, i64 0, i64 %56
  %58 = load i32, i32* %57, align 4
  %59 = icmp slt i32 %54, %58
  br i1 %59, label %60, label %188

60:                                               ; preds = %53
  %61 = load i32, i32* %4, align 4
  %62 = sext i32 %61 to i64
  %63 = getelementptr inbounds [20 x %struct.jianfa], [20 x %struct.jianfa]* @a, i64 0, i64 %62
  %64 = getelementptr inbounds %struct.jianfa, %struct.jianfa* %63, i32 0, i32 0
  %65 = load i32, i32* %4, align 4
  %66 = sext i32 %65 to i64
  %67 = getelementptr inbounds [20 x i32], [20 x i32]* %2, i64 0, i64 %66
  %68 = load i32, i32* %67, align 4
  %69 = sub nsw i32 %68, 1
  %70 = load i32, i32* %1, align 4
  %71 = sub nsw i32 %69, %70
  %72 = sext i32 %71 to i64
  %73 = getelementptr inbounds [100 x i8], [100 x i8]* %64, i64 0, i64 %72
  %74 = load i8, i8* %73, align 1
  %75 = sext i8 %74 to i32
  %76 = load i32, i32* %4, align 4
  %77 = sext i32 %76 to i64
  %78 = getelementptr inbounds [20 x %struct.jianfa], [20 x %struct.jianfa]* @a, i64 0, i64 %77
  %79 = getelementptr inbounds %struct.jianfa, %struct.jianfa* %78, i32 0, i32 1
  %80 = load i32, i32* %4, align 4
  %81 = sext i32 %80 to i64
  %82 = getelementptr inbounds [20 x i32], [20 x i32]* %3, i64 0, i64 %81
  %83 = load i32, i32* %82, align 4
  %84 = sub nsw i32 %83, 1
  %85 = load i32, i32* %1, align 4
  %86 = sub nsw i32 %84, %85
  %87 = sext i32 %86 to i64
  %88 = getelementptr inbounds [100 x i8], [100 x i8]* %79, i64 0, i64 %87
  %89 = load i8, i8* %88, align 1
  %90 = sext i8 %89 to i32
  %91 = sub nsw i32 %75, %90
  %92 = add nsw i32 %91, 48
  %93 = trunc i32 %92 to i8
  %94 = load i32, i32* %4, align 4
  %95 = sext i32 %94 to i64
  %96 = getelementptr inbounds [20 x %struct.jianfa], [20 x %struct.jianfa]* @a, i64 0, i64 %95
  %97 = getelementptr inbounds %struct.jianfa, %struct.jianfa* %96, i32 0, i32 0
  %98 = load i32, i32* %4, align 4
  %99 = sext i32 %98 to i64
  %100 = getelementptr inbounds [20 x i32], [20 x i32]* %2, i64 0, i64 %99
  %101 = load i32, i32* %100, align 4
  %102 = sub nsw i32 %101, 1
  %103 = load i32, i32* %1, align 4
  %104 = sub nsw i32 %102, %103
  %105 = sext i32 %104 to i64
  %106 = getelementptr inbounds [100 x i8], [100 x i8]* %97, i64 0, i64 %105
  store i8 %93, i8* %106, align 1
  %107 = load i32, i32* %4, align 4
  %108 = sext i32 %107 to i64
  %109 = getelementptr inbounds [20 x %struct.jianfa], [20 x %struct.jianfa]* @a, i64 0, i64 %108
  %110 = getelementptr inbounds %struct.jianfa, %struct.jianfa* %109, i32 0, i32 0
  %111 = load i32, i32* %4, align 4
  %112 = sext i32 %111 to i64
  %113 = getelementptr inbounds [20 x i32], [20 x i32]* %2, i64 0, i64 %112
  %114 = load i32, i32* %113, align 4
  %115 = sub nsw i32 %114, 1
  %116 = load i32, i32* %1, align 4
  %117 = sub nsw i32 %115, %116
  %118 = sext i32 %117 to i64
  %119 = getelementptr inbounds [100 x i8], [100 x i8]* %110, i64 0, i64 %118
  %120 = load i8, i8* %119, align 1
  %121 = sext i8 %120 to i32
  %122 = icmp slt i32 %121, 48
  br i1 %122, label %123, label %184

123:                                              ; preds = %60
  %124 = load i32, i32* %4, align 4
  %125 = sext i32 %124 to i64
  %126 = getelementptr inbounds [20 x %struct.jianfa], [20 x %struct.jianfa]* @a, i64 0, i64 %125
  %127 = getelementptr inbounds %struct.jianfa, %struct.jianfa* %126, i32 0, i32 0
  %128 = load i32, i32* %4, align 4
  %129 = sext i32 %128 to i64
  %130 = getelementptr inbounds [20 x i32], [20 x i32]* %2, i64 0, i64 %129
  %131 = load i32, i32* %130, align 4
  %132 = sub nsw i32 %131, 1
  %133 = load i32, i32* %1, align 4
  %134 = sub nsw i32 %132, %133
  %135 = sext i32 %134 to i64
  %136 = getelementptr inbounds [100 x i8], [100 x i8]* %127, i64 0, i64 %135
  %137 = load i8, i8* %136, align 1
  %138 = sext i8 %137 to i32
  %139 = add nsw i32 %138, 10
  %140 = trunc i32 %139 to i8
  %141 = load i32, i32* %4, align 4
  %142 = sext i32 %141 to i64
  %143 = getelementptr inbounds [20 x %struct.jianfa], [20 x %struct.jianfa]* @a, i64 0, i64 %142
  %144 = getelementptr inbounds %struct.jianfa, %struct.jianfa* %143, i32 0, i32 0
  %145 = load i32, i32* %4, align 4
  %146 = sext i32 %145 to i64
  %147 = getelementptr inbounds [20 x i32], [20 x i32]* %2, i64 0, i64 %146
  %148 = load i32, i32* %147, align 4
  %149 = sub nsw i32 %148, 1
  %150 = load i32, i32* %1, align 4
  %151 = sub nsw i32 %149, %150
  %152 = sext i32 %151 to i64
  %153 = getelementptr inbounds [100 x i8], [100 x i8]* %144, i64 0, i64 %152
  store i8 %140, i8* %153, align 1
  %154 = load i32, i32* %4, align 4
  %155 = sext i32 %154 to i64
  %156 = getelementptr inbounds [20 x %struct.jianfa], [20 x %struct.jianfa]* @a, i64 0, i64 %155
  %157 = getelementptr inbounds %struct.jianfa, %struct.jianfa* %156, i32 0, i32 0
  %158 = load i32, i32* %4, align 4
  %159 = sext i32 %158 to i64
  %160 = getelementptr inbounds [20 x i32], [20 x i32]* %2, i64 0, i64 %159
  %161 = load i32, i32* %160, align 4
  %162 = sub nsw i32 %161, 2
  %163 = load i32, i32* %1, align 4
  %164 = sub nsw i32 %162, %163
  %165 = sext i32 %164 to i64
  %166 = getelementptr inbounds [100 x i8], [100 x i8]* %157, i64 0, i64 %165
  %167 = load i8, i8* %166, align 1
  %168 = sext i8 %167 to i32
  %169 = sub nsw i32 %168, 1
  %170 = trunc i32 %169 to i8
  %171 = load i32, i32* %4, align 4
  %172 = sext i32 %171 to i64
  %173 = getelementptr inbounds [20 x %struct.jianfa], [20 x %struct.jianfa]* @a, i64 0, i64 %172
  %174 = getelementptr inbounds %struct.jianfa, %struct.jianfa* %173, i32 0, i32 0
  %175 = load i32, i32* %4, align 4
  %176 = sext i32 %175 to i64
  %177 = getelementptr inbounds [20 x i32], [20 x i32]* %2, i64 0, i64 %176
  %178 = load i32, i32* %177, align 4
  %179 = sub nsw i32 %178, 2
  %180 = load i32, i32* %1, align 4
  %181 = sub nsw i32 %179, %180
  %182 = sext i32 %181 to i64
  %183 = getelementptr inbounds [100 x i8], [100 x i8]* %174, i64 0, i64 %182
  store i8 %170, i8* %183, align 1
  br label %184

184:                                              ; preds = %123, %60
  br label %185

185:                                              ; preds = %184
  %186 = load i32, i32* %1, align 4
  %187 = add nsw i32 %186, 1
  store i32 %187, i32* %1, align 4
  br label %53

188:                                              ; preds = %53
  %189 = load i32, i32* %4, align 4
  %190 = sext i32 %189 to i64
  %191 = getelementptr inbounds [20 x %struct.jianfa], [20 x %struct.jianfa]* @a, i64 0, i64 %190
  %192 = getelementptr inbounds %struct.jianfa, %struct.jianfa* %191, i32 0, i32 0
  %193 = getelementptr inbounds [100 x i8], [100 x i8]* %192, i64 0, i64 0
  %194 = call i32 @puts(i8* %193)
  br label %195

195:                                              ; preds = %188
  %196 = load i32, i32* %4, align 4
  %197 = add nsw i32 %196, 1
  store i32 %197, i32* %4, align 4
  br label %48

198:                                              ; preds = %48
  ret void
}

declare dso_local i32 @__isoc99_scanf(i8*, ...) #1

declare dso_local i32 @getchar() #1

; Function Attrs: nounwind readonly
declare dso_local i64 @strlen(i8*) #2

declare dso_local i32 @puts(i8*) #1


!llvm.module.flags = !{!0}
!llvm.ident = !{!1}

!0 = !{i32 1, !"wchar_size", i32 4}
!1 = !{!"clang version 10.0.0-4ubuntu1 "}
